; Function Attrs: mustprogress uwtable
define hidden noundef zeroext i1 @_ZN4cvc58internal6theory9Valuation18isLegalEliminationENS0_12NodeTemplateILb0EEES4_(ptr noundef nonnull readonly align 8 captures(none) dereferenceable(8) %0, ptr noundef readonly captures(none) %1, ptr noundef readonly captures(none) %2) local_unnamed_addr #4 align 2 personality ptr @__gxx_personality_v0 {
  %4 = alloca %"class.cvc5::internal::NodeTemplate", align 8
  %5 = alloca %"class.cvc5::internal::NodeTemplate", align 8
  %6 = load ptr, ptr %0, align 8, !tbaa !3
  %7 = load ptr, ptr %1, align 8, !tbaa !142
  store ptr %7, ptr %4, align 8, !tbaa !142
  %8 = load ptr, ptr %2, align 8, !tbaa !142
  store ptr %8, ptr %5, align 8, !tbaa !142
  %9 = call noundef zeroext i1 @_ZN4cvc58internal12TheoryEngine18isLegalEliminationENS0_12NodeTemplateILb0EEES3_(ptr noundef nonnull align 8 dereferenceable(1480) %6, ptr noundef nonnull %4, ptr noundef nonnull %5)
  ret i1 %9
}